target datalayout = "e-m:e-p270:32:32-p271:32:32-p272:64:64-i64:64-i128:128-f80:128-n8:16:32:64-S128"
target triple = "x86_64-pc-linux-gnu"

%struct.CPpmd8 = type { ptr, ptr, ptr, i32, i32, i32, i32, i32, i32, i32, i32, ptr, ptr, ptr, ptr, ptr, i32, i32, i32, i32, i32, %union.anon, [38 x i8], [128 x i8], [38 x i32], [38 x i32], [256 x i8], [260 x i8], %struct.CPpmd_See, [24 x [32 x %struct.CPpmd_See]], [25 x [64 x i16]] }
%union.anon = type { ptr }
%struct.CPpmd_See = type { i16, i8, i8 }

; Function Attrs: nounwind uwtable
define dso_local void @Ppmd8_Init(ptr noundef %0, i32 noundef %1, i32 noundef %2) #0 {
  %4 = alloca ptr, align 8
  %5 = alloca i32, align 4
  %6 = alloca i32, align 4
  store ptr %0, ptr %4, align 8, !tbaa !4
  store i32 %1, ptr %5, align 4, !tbaa !15
  store i32 %2, ptr %6, align 4, !tbaa !15
  %7 = load i32, ptr %5, align 4, !tbaa !15
  %8 = load ptr, ptr %4, align 8, !tbaa !4
  %9 = getelementptr inbounds nuw %struct.CPpmd8, ptr %8, i32 0, i32 6
  store i32 %7, ptr %9, align 4, !tbaa !24
  %10 = load i32, ptr %6, align 4, !tbaa !15
  %11 = load ptr, ptr %4, align 8, !tbaa !4
  %12 = getelementptr inbounds nuw %struct.CPpmd8, ptr %11, i32 0, i32 17
  store i32 %10, ptr %12, align 4, !tbaa !25
  %13 = load ptr, ptr %4, align 8, !tbaa !4
  call void @RestartModel(ptr noundef %13)
  %14 = load ptr, ptr %4, align 8, !tbaa !4
  %15 = getelementptr inbounds nuw %struct.CPpmd8, ptr %14, i32 0, i32 28
  %16 = getelementptr inbounds nuw %struct.CPpmd_See, ptr %15, i32 0, i32 1
  store i8 7, ptr %16, align 2, !tbaa !26
  %17 = load ptr, ptr %4, align 8, !tbaa !4
  %18 = getelementptr inbounds nuw %struct.CPpmd8, ptr %17, i32 0, i32 28
  %19 = getelementptr inbounds nuw %struct.CPpmd_See, ptr %18, i32 0, i32 0
  store i16 0, ptr %19, align 4, !tbaa !27
  %20 = load ptr, ptr %4, align 8, !tbaa !4
  %21 = getelementptr inbounds nuw %struct.CPpmd8, ptr %20, i32 0, i32 28
  %22 = getelementptr inbounds nuw %struct.CPpmd_See, ptr %21, i32 0, i32 2
  store i8 64, ptr %22, align 1, !tbaa !28
  ret void
}