; Function Attrs: nofree norecurse nosync nounwind memory(write, argmem: readwrite, inaccessiblemem: none) uwtable
define dso_local void @Ppmd8_Init(ptr noundef captures(none) initializes((0, 28), (32, 48), (52, 56), (64, 96), (100, 104), (296, 600)) %0, i32 noundef %1, i32 noundef %2) #6 {
  %4 = getelementptr inbounds nuw i8, ptr %0, i64 36
  store i32 %1, ptr %4, align 4, !tbaa !22
  %5 = getelementptr inbounds nuw i8, ptr %0, i64 100
  store i32 %2, ptr %5, align 4, !tbaa !23
  tail call fastcc void @RestartModel(ptr noundef %0)
  %6 = getelementptr inbounds nuw i8, ptr %0, i64 1116
  %7 = getelementptr inbounds nuw i8, ptr %0, i64 1118
  store i8 7, ptr %7, align 2, !tbaa !24
  store i16 0, ptr %6, align 4, !tbaa !25
  %8 = getelementptr inbounds nuw i8, ptr %0, i64 1119
  store i8 64, ptr %8, align 1, !tbaa !26
  ret void
}